target datalayout = "e-m:e-p270:32:32-p271:32:32-p272:64:64-i64:64-i128:128-f80:128-n8:16:32:64-S128"
target triple = "x86_64-pc-linux-gnu"

%struct.pmix_list_t = type { %struct.pmix_object_t, %struct.pmix_list_item_t, i64 }
%struct.pmix_object_t = type { %union.pthread_mutex_t, ptr, i32, %struct.pmix_tma }
%union.pthread_mutex_t = type { %struct.__pthread_mutex_s }
%struct.__pthread_mutex_s = type { i32, i32, i32, i32, i32, i16, i16, %struct.__pthread_internal_list }
%struct.__pthread_internal_list = type { ptr, ptr }
%struct.pmix_tma = type { ptr, ptr, ptr, ptr, ptr, ptr, ptr, ptr }
%struct.pmix_list_item_t = type { %struct.pmix_object_t, ptr, ptr, i32 }
%struct.prte_node_t = type { %struct.pmix_list_item_t, i32, ptr, ptr, ptr, ptr, ptr, ptr, i16, ptr, i16, i8, i32, i32, i32, i32, ptr, i8, %struct.pmix_list_t }

@.str.161 = private unnamed_addr constant [3 x i8] c": \00", align 1
@.str.177 = private unnamed_addr constant [16 x i8] c"DAEMON-LAUNCHED\00", align 1
@.str.178 = private unnamed_addr constant [9 x i8] c"LOCATION\00", align 1
@.str.179 = private unnamed_addr constant [15 x i8] c"OVERSUBSCRIBED\00", align 1
@.str.180 = private unnamed_addr constant [7 x i8] c"MAPPED\00", align 1
@.str.181 = private unnamed_addr constant [12 x i8] c"SLOTS-GIVEN\00", align 1
@.str.182 = private unnamed_addr constant [10 x i8] c"NONUSABLE\00", align 1

; Function Attrs: nounwind uwtable
define ptr @prte_print_node_flags(ptr noundef %0) #0 {
  %2 = alloca ptr, align 8
  %3 = alloca ptr, align 8
  %4 = alloca ptr, align 8
  %5 = alloca ptr, align 8
  store ptr %0, ptr %2, align 8, !tbaa !102
  call void @llvm.lifetime.start.p0(i64 8, ptr %3) #11
  %6 = load ptr, ptr %2, align 8, !tbaa !102
  store ptr %6, ptr %3, align 8, !tbaa !10
  call void @llvm.lifetime.start.p0(i64 8, ptr %4) #11
  store ptr null, ptr %4, align 8, !tbaa !92
  call void @llvm.lifetime.start.p0(i64 8, ptr %5) #11
  %7 = load ptr, ptr %3, align 8, !tbaa !10
  %8 = getelementptr inbounds nuw %struct.prte_node_t, ptr %7, i32 0, i32 2
  %9 = load ptr, ptr %8, align 8, !tbaa !104
  %10 = call i32 @PMIx_Argv_append_nosize(ptr noundef %4, ptr noundef %9)
  %11 = call i32 @PMIx_Argv_append_nosize(ptr noundef %4, ptr noundef @.str.161)
  %12 = load ptr, ptr %3, align 8, !tbaa !10
  %13 = getelementptr inbounds nuw %struct.prte_node_t, ptr %12, i32 0, i32 17
  %14 = load i8, ptr %13, align 8, !tbaa !108
  %15 = zext i8 %14 to i32
  %16 = and i32 %15, 1
  %17 = icmp ne i32 %16, 0
  br i1 %17, label %18, label %20

18:                                               ; preds = %1
  %19 = call i32 @PMIx_Argv_append_nosize(ptr noundef %4, ptr noundef @.str.177)
  br label %20

20:                                               ; preds = %18, %1
  %21 = load ptr, ptr %3, align 8, !tbaa !10
  %22 = getelementptr inbounds nuw %struct.prte_node_t, ptr %21, i32 0, i32 17
  %23 = load i8, ptr %22, align 8, !tbaa !108
  %24 = zext i8 %23 to i32
  %25 = and i32 %24, 2
  %26 = icmp ne i32 %25, 0
  br i1 %26, label %27, label %29

27:                                               ; preds = %20
  %28 = call i32 @PMIx_Argv_append_nosize(ptr noundef %4, ptr noundef @.str.178)
  br label %29

29:                                               ; preds = %27, %20
  %30 = load ptr, ptr %3, align 8, !tbaa !10
  %31 = getelementptr inbounds nuw %struct.prte_node_t, ptr %30, i32 0, i32 17
  %32 = load i8, ptr %31, align 8, !tbaa !108
  %33 = zext i8 %32 to i32
  %34 = and i32 %33, 4
  %35 = icmp ne i32 %34, 0
  br i1 %35, label %36, label %38

36:                                               ; preds = %29
  %37 = call i32 @PMIx_Argv_append_nosize(ptr noundef %4, ptr noundef @.str.179)
  br label %38

38:                                               ; preds = %36, %29
  %39 = load ptr, ptr %3, align 8, !tbaa !10
  %40 = getelementptr inbounds nuw %struct.prte_node_t, ptr %39, i32 0, i32 17
  %41 = load i8, ptr %40, align 8, !tbaa !108
  %42 = zext i8 %41 to i32
  %43 = and i32 %42, 8
  %44 = icmp ne i32 %43, 0
  br i1 %44, label %45, label %47

45:                                               ; preds = %38
  %46 = call i32 @PMIx_Argv_append_nosize(ptr noundef %4, ptr noundef @.str.180)
  br label %47

47:                                               ; preds = %45, %38
  %48 = load ptr, ptr %3, align 8, !tbaa !10
  %49 = getelementptr inbounds nuw %struct.prte_node_t, ptr %48, i32 0, i32 17
  %50 = load i8, ptr %49, align 8, !tbaa !108
  %51 = zext i8 %50 to i32
  %52 = and i32 %51, 16
  %53 = icmp ne i32 %52, 0
  br i1 %53, label %54, label %56

54:                                               ; preds = %47
  %55 = call i32 @PMIx_Argv_append_nosize(ptr noundef %4, ptr noundef @.str.181)
  br label %56

56:                                               ; preds = %54, %47
  %57 = load ptr, ptr %3, align 8, !tbaa !10
  %58 = getelementptr inbounds nuw %struct.prte_node_t, ptr %57, i32 0, i32 17
  %59 = load i8, ptr %58, align 8, !tbaa !108
  %60 = zext i8 %59 to i32
  %61 = and i32 %60, 32
  %62 = icmp ne i32 %61, 0
  br i1 %62, label %63, label %65

63:                                               ; preds = %56
  %64 = call i32 @PMIx_Argv_append_nosize(ptr noundef %4, ptr noundef @.str.182)
  br label %65

65:                                               ; preds = %63, %56
  %66 = load ptr, ptr %4, align 8, !tbaa !92
  %67 = call ptr @PMIx_Argv_join(ptr noundef %66, i32 noundef 124)
  store ptr %67, ptr %5, align 8, !tbaa !85
  %68 = load ptr, ptr %4, align 8, !tbaa !92
  call void @PMIx_Argv_free(ptr noundef %68)
  %69 = load ptr, ptr %5, align 8, !tbaa !85
  call void @llvm.lifetime.end.p0(i64 8, ptr %5) #11
  call void @llvm.lifetime.end.p0(i64 8, ptr %4) #11
  call void @llvm.lifetime.end.p0(i64 8, ptr %3) #11
  ret ptr %69
}