; Function Attrs: nounwind uwtable
define ptr @prte_print_node_flags(ptr noundef readonly captures(none) %0) local_unnamed_addr #0 {
  %2 = alloca ptr, align 8
  call void @llvm.lifetime.start.p0(i64 8, ptr nonnull %2) #13
  store ptr null, ptr %2, align 8, !tbaa !70
  %3 = getelementptr inbounds nuw i8, ptr %0, i64 152
  %4 = load ptr, ptr %3, align 8, !tbaa !78
  %5 = call i32 @PMIx_Argv_append_nosize(ptr noundef nonnull %2, ptr noundef %4) #13
  %6 = call i32 @PMIx_Argv_append_nosize(ptr noundef nonnull %2, ptr noundef nonnull @.str.161) #13
  %7 = getelementptr inbounds nuw i8, ptr %0, i64 248
  %8 = load i8, ptr %7, align 8, !tbaa !83
  %9 = and i8 %8, 1
  %.not = icmp eq i8 %9, 0
  br i1 %.not, label %12, label %10

10:                                               ; preds = %1
  %11 = call i32 @PMIx_Argv_append_nosize(ptr noundef nonnull %2, ptr noundef nonnull @.str.177) #13
  %.pre = load i8, ptr %7, align 8, !tbaa !83
  br label %12

12:                                               ; preds = %10, %1
  %13 = phi i8 [ %.pre, %10 ], [ %8, %1 ]
  %14 = and i8 %13, 2
  %.not9 = icmp eq i8 %14, 0
  br i1 %.not9, label %17, label %15

15:                                               ; preds = %12
  %16 = call i32 @PMIx_Argv_append_nosize(ptr noundef nonnull %2, ptr noundef nonnull @.str.178) #13
  %.pre14 = load i8, ptr %7, align 8, !tbaa !83
  br label %17

17:                                               ; preds = %15, %12
  %18 = phi i8 [ %.pre14, %15 ], [ %13, %12 ]
  %19 = and i8 %18, 4
  %.not10 = icmp eq i8 %19, 0
  br i1 %.not10, label %22, label %20

20:                                               ; preds = %17
  %21 = call i32 @PMIx_Argv_append_nosize(ptr noundef nonnull %2, ptr noundef nonnull @.str.179) #13
  %.pre15 = load i8, ptr %7, align 8, !tbaa !83
  br label %22

22:                                               ; preds = %20, %17
  %23 = phi i8 [ %.pre15, %20 ], [ %18, %17 ]
  %24 = and i8 %23, 8
  %.not11 = icmp eq i8 %24, 0
  br i1 %.not11, label %27, label %25

25:                                               ; preds = %22
  %26 = call i32 @PMIx_Argv_append_nosize(ptr noundef nonnull %2, ptr noundef nonnull @.str.180) #13
  %.pre16 = load i8, ptr %7, align 8, !tbaa !83
  br label %27

27:                                               ; preds = %25, %22
  %28 = phi i8 [ %.pre16, %25 ], [ %23, %22 ]
  %29 = and i8 %28, 16
  %.not12 = icmp eq i8 %29, 0
  br i1 %.not12, label %32, label %30

30:                                               ; preds = %27
  %31 = call i32 @PMIx_Argv_append_nosize(ptr noundef nonnull %2, ptr noundef nonnull @.str.181) #13
  %.pre17 = load i8, ptr %7, align 8, !tbaa !83
  br label %32

32:                                               ; preds = %30, %27
  %33 = phi i8 [ %.pre17, %30 ], [ %28, %27 ]
  %34 = and i8 %33, 32
  %.not13 = icmp eq i8 %34, 0
  br i1 %.not13, label %37, label %35

35:                                               ; preds = %32
  %36 = call i32 @PMIx_Argv_append_nosize(ptr noundef nonnull %2, ptr noundef nonnull @.str.182) #13
  br label %37

37:                                               ; preds = %35, %32
  %38 = load ptr, ptr %2, align 8, !tbaa !70
  %39 = call ptr @PMIx_Argv_join(ptr noundef %38, i32 noundef 124) #13
  %40 = load ptr, ptr %2, align 8, !tbaa !70
  call void @PMIx_Argv_free(ptr noundef %40) #13
  call void @llvm.lifetime.end.p0(i64 8, ptr nonnull %2) #13
  ret ptr %39
}